target datalayout = "e-m:e-p270:32:32-p271:32:32-p272:64:64-i64:64-i128:128-f80:128-n8:16:32:64-S128"
target triple = "x86_64-unknown-linux-gnu"

%"class.node::MemoryRetainer" = type { ptr }
%"class.std::__shared_count" = type { ptr }
%"class.std::__shared_ptr.18" = type { ptr, %"class.std::__shared_count" }
%"struct.node::SocketAddressBlockList::Rule" = type { %"class.node::MemoryRetainer" }
%"class.std::shared_ptr.17" = type { %"class.std::__shared_ptr.18" }
%"struct.node::SocketAddressBlockList::SocketAddressMaskRule" = type <{ %"struct.node::SocketAddressBlockList::Rule", %"class.std::shared_ptr.17", i32, [4 x i8] }>

; Function Attrs: mustprogress nounwind uwtable
define linkonce_odr dso_local noundef ptr @_ZNKSt19__shared_ptr_accessIN4node13SocketAddressELN9__gnu_cxx12_Lock_policyE2ELb0ELb0EE6_M_getEv(ptr noundef nonnull align 1 dereferenceable(1) %this) #4 comdat align 2 {
entry:
  %this.addr = alloca ptr, align 8
  store ptr %this, ptr %this.addr, align 8
  %this1 = load ptr, ptr %this.addr, align 8
  %call = call noundef ptr @_ZNKSt12__shared_ptrIN4node13SocketAddressELN9__gnu_cxx12_Lock_policyE2EE3getEv(ptr noundef nonnull align 8 dereferenceable(16) %this1) #3
  ret ptr %call
}

; Function Attrs: mustprogress nounwind uwtable
define linkonce_odr dso_local noundef ptr @_ZNKSt12__shared_ptrIN4node13SocketAddressELN9__gnu_cxx12_Lock_policyE2EE3getEv(ptr noundef nonnull align 8 dereferenceable(16) %this) #4 comdat align 2 {
entry:
  %this.addr = alloca ptr, align 8
  store ptr %this, ptr %this.addr, align 8
  %this1 = load ptr, ptr %this.addr, align 8
  %_M_ptr = getelementptr inbounds %"class.std::__shared_ptr.18", ptr %this1, i32 0, i32 0
  %0 = load ptr, ptr %_M_ptr, align 8
  ret ptr %0
}

; Function Attrs: mustprogress nounwind uwtable
define linkonce_odr dso_local noundef ptr @_ZNKSt19__shared_ptr_accessIN4node13SocketAddressELN9__gnu_cxx12_Lock_policyE2ELb0ELb0EEptEv(ptr noundef nonnull align 1 dereferenceable(1) %this) #4 comdat align 2 {
entry:
  %this.addr = alloca ptr, align 8
  store ptr %this, ptr %this.addr, align 8
  %this1 = load ptr, ptr %this.addr, align 8
  %call = call noundef ptr @_ZNKSt19__shared_ptr_accessIN4node13SocketAddressELN9__gnu_cxx12_Lock_policyE2ELb0ELb0EE6_M_getEv(ptr noundef nonnull align 1 dereferenceable(1) %this1) #3
  ret ptr %call
}

; Function Attrs: mustprogress nounwind uwtable
define dso_local noundef zeroext i1 @_ZN4node22SocketAddressBlockList21SocketAddressMaskRule5ApplyERKSt10shared_ptrINS_13SocketAddressEE(ptr noundef nonnull align 8 dereferenceable(32) %this, ptr noundef nonnull align 8 dereferenceable(16) %address) unnamed_addr #4 align 2 {
entry:
  %this.addr = alloca ptr, align 8
  %address.addr = alloca ptr, align 8
  store ptr %this, ptr %this.addr, align 8
  store ptr %address, ptr %address.addr, align 8
  %this1 = load ptr, ptr %this.addr, align 8
  %0 = load ptr, ptr %address.addr, align 8
  %call = call noundef ptr @_ZNKSt19__shared_ptr_accessIN4node13SocketAddressELN9__gnu_cxx12_Lock_policyE2ELb0ELb0EEptEv(ptr noundef nonnull align 1 dereferenceable(1) %0) #3
  %network = getelementptr inbounds %"struct.node::SocketAddressBlockList::SocketAddressMaskRule", ptr %this1, i32 0, i32 1
  %call2 = call noundef ptr @_ZNKSt12__shared_ptrIN4node13SocketAddressELN9__gnu_cxx12_Lock_policyE2EE3getEv(ptr noundef nonnull align 8 dereferenceable(16) %network) #3
  %prefix = getelementptr inbounds %"struct.node::SocketAddressBlockList::SocketAddressMaskRule", ptr %this1, i32 0, i32 2
  %1 = load i32, ptr %prefix, align 8
  %call3 = call noundef zeroext i1 @_ZNK4node13SocketAddress13is_in_networkERKS0_i(ptr noundef nonnull align 8 dereferenceable(136) %call, ptr noundef nonnull align 8 dereferenceable(136) %call2, i32 noundef %1)
  ret i1 %call3
}