; Function Attrs: mustprogress nofree nounwind willreturn memory(read, inaccessiblemem: none) uwtable
define dso_local noundef zeroext i1 @_ZN4node22SocketAddressBlockList21SocketAddressMaskRule5ApplyERKSt10shared_ptrINS_13SocketAddressEE(ptr nocapture noundef nonnull readonly align 8 dereferenceable(32) %this, ptr nocapture noundef nonnull readonly align 8 dereferenceable(16) %address) unnamed_addr #8 align 2 {
entry:
  %0 = load ptr, ptr %address, align 8
  %network = getelementptr inbounds i8, ptr %this, i64 8
  %1 = load ptr, ptr %network, align 8
  %prefix = getelementptr inbounds i8, ptr %this, i64 24
  %2 = load i32, ptr %prefix, align 8
  %call3 = tail call noundef zeroext i1 @_ZNK4node13SocketAddress13is_in_networkERKS0_i(ptr noundef nonnull align 8 dereferenceable(136) %0, ptr noundef nonnull align 8 dereferenceable(136) %1, i32 noundef %2)
  ret i1 %call3
}